target datalayout = "e-m:e-p270:32:32-p271:32:32-p272:64:64-i64:64-i128:128-f80:128-n8:16:32:64-S128"
target triple = "x86_64-unknown-linux-gnu"

%struct.redisObject = type { i32, i32, ptr }

@.str.1 = private unnamed_addr constant [2 x i8] c"m\00", align 1
@.str.2 = private unnamed_addr constant [3 x i8] c"km\00", align 1
@.str.3 = private unnamed_addr constant [3 x i8] c"ft\00", align 1
@.str.4 = private unnamed_addr constant [3 x i8] c"mi\00", align 1
@.str.5 = private unnamed_addr constant [52 x i8] c"unsupported unit provided. please use M, KM, FT, MI\00", align 1
@.str.8 = private unnamed_addr constant [19 x i8] c"need numeric width\00", align 1
@.str.9 = private unnamed_addr constant [20 x i8] c"need numeric height\00", align 1
@.str.10 = private unnamed_addr constant [35 x i8] c"height or width cannot be negative\00", align 1

; Function Attrs: nounwind uwtable
define dso_local double @extractUnitOrReply(ptr noundef %c, ptr noundef %unit) #0 {
entry:
  %retval = alloca double, align 8
  %c.addr = alloca ptr, align 8
  %unit.addr = alloca ptr, align 8
  %u = alloca ptr, align 8
  store ptr %c, ptr %c.addr, align 8
  store ptr %unit, ptr %unit.addr, align 8
  %0 = load ptr, ptr %unit.addr, align 8
  %ptr = getelementptr inbounds %struct.redisObject, ptr %0, i32 0, i32 2
  %1 = load ptr, ptr %ptr, align 8
  store ptr %1, ptr %u, align 8
  %2 = load ptr, ptr %u, align 8
  %call = call i32 @strcasecmp(ptr noundef %2, ptr noundef @.str.1) #11
  %tobool = icmp ne i32 %call, 0
  br i1 %tobool, label %if.else, label %if.then

if.then:                                          ; preds = %entry
  store double 1.000000e+00, ptr %retval, align 8
  br label %return

if.else:                                          ; preds = %entry
  %3 = load ptr, ptr %u, align 8
  %call1 = call i32 @strcasecmp(ptr noundef %3, ptr noundef @.str.2) #11
  %tobool2 = icmp ne i32 %call1, 0
  br i1 %tobool2, label %if.else4, label %if.then3

if.then3:                                         ; preds = %if.else
  store double 1.000000e+03, ptr %retval, align 8
  br label %return

if.else4:                                         ; preds = %if.else
  %4 = load ptr, ptr %u, align 8
  %call5 = call i32 @strcasecmp(ptr noundef %4, ptr noundef @.str.3) #11
  %tobool6 = icmp ne i32 %call5, 0
  br i1 %tobool6, label %if.else8, label %if.then7

if.then7:                                         ; preds = %if.else4
  store double 3.048000e-01, ptr %retval, align 8
  br label %return

if.else8:                                         ; preds = %if.else4
  %5 = load ptr, ptr %u, align 8
  %call9 = call i32 @strcasecmp(ptr noundef %5, ptr noundef @.str.4) #11
  %tobool10 = icmp ne i32 %call9, 0
  br i1 %tobool10, label %if.else12, label %if.then11

if.then11:                                        ; preds = %if.else8
  store double 1.609340e+03, ptr %retval, align 8
  br label %return

if.else12:                                        ; preds = %if.else8
  %6 = load ptr, ptr %c.addr, align 8
  call void @addReplyError(ptr noundef %6, ptr noundef @.str.5)
  store double -1.000000e+00, ptr %retval, align 8
  br label %return

return:                                           ; preds = %if.else12, %if.then11, %if.then7, %if.then3, %if.then
  %7 = load double, ptr %retval, align 8
  ret double %7
}

; Function Attrs: nounwind uwtable
define dso_local i32 @extractBoxOrReply(ptr noundef %c, ptr noundef %argv, ptr noundef %conversion, ptr noundef %width, ptr noundef %height) #0 {
entry:
  %retval = alloca i32, align 4
  %c.addr = alloca ptr, align 8
  %argv.addr = alloca ptr, align 8
  %conversion.addr = alloca ptr, align 8
  %width.addr = alloca ptr, align 8
  %height.addr = alloca ptr, align 8
  %h = alloca double, align 8
  %w = alloca double, align 8
  %to_meters = alloca double, align 8
  store ptr %c, ptr %c.addr, align 8
  store ptr %argv, ptr %argv.addr, align 8
  store ptr %conversion, ptr %conversion.addr, align 8
  store ptr %width, ptr %width.addr, align 8
  store ptr %height, ptr %height.addr, align 8
  %0 = load ptr, ptr %c.addr, align 8
  %1 = load ptr, ptr %argv.addr, align 8
  %arrayidx = getelementptr inbounds ptr, ptr %1, i64 0
  %2 = load ptr, ptr %arrayidx, align 8
  %call = call i32 @getDoubleFromObjectOrReply(ptr noundef %0, ptr noundef %2, ptr noundef %w, ptr noundef @.str.8)
  %cmp = icmp ne i32 %call, 0
  br i1 %cmp, label %if.then, label %lor.lhs.false

lor.lhs.false:                                    ; preds = %entry
  %3 = load ptr, ptr %c.addr, align 8
  %4 = load ptr, ptr %argv.addr, align 8
  %arrayidx1 = getelementptr inbounds ptr, ptr %4, i64 1
  %5 = load ptr, ptr %arrayidx1, align 8
  %call2 = call i32 @getDoubleFromObjectOrReply(ptr noundef %3, ptr noundef %5, ptr noundef %h, ptr noundef @.str.9)
  %cmp3 = icmp ne i32 %call2, 0
  br i1 %cmp3, label %if.then, label %if.end

if.then:                                          ; preds = %lor.lhs.false, %entry
  store i32 -1, ptr %retval, align 4
  br label %return

if.end:                                           ; preds = %lor.lhs.false
  %6 = load double, ptr %h, align 8
  %cmp4 = fcmp olt double %6, 0.000000e+00
  br i1 %cmp4, label %if.then7, label %lor.lhs.false5

lor.lhs.false5:                                   ; preds = %if.end
  %7 = load double, ptr %w, align 8
  %cmp6 = fcmp olt double %7, 0.000000e+00
  br i1 %cmp6, label %if.then7, label %if.end8

if.then7:                                         ; preds = %lor.lhs.false5, %if.end
  %8 = load ptr, ptr %c.addr, align 8
  call void @addReplyError(ptr noundef %8, ptr noundef @.str.10)
  store i32 -1, ptr %retval, align 4
  br label %return

if.end8:                                          ; preds = %lor.lhs.false5
  %9 = load ptr, ptr %height.addr, align 8
  %tobool = icmp ne ptr %9, null
  br i1 %tobool, label %if.then9, label %if.end10

if.then9:                                         ; preds = %if.end8
  %10 = load double, ptr %h, align 8
  %11 = load ptr, ptr %height.addr, align 8
  store double %10, ptr %11, align 8
  br label %if.end10

if.end10:                                         ; preds = %if.then9, %if.end8
  %12 = load ptr, ptr %width.addr, align 8
  %tobool11 = icmp ne ptr %12, null
  br i1 %tobool11, label %if.then12, label %if.end13

if.then12:                                        ; preds = %if.end10
  %13 = load double, ptr %w, align 8
  %14 = load ptr, ptr %width.addr, align 8
  store double %13, ptr %14, align 8
  br label %if.end13

if.end13:                                         ; preds = %if.then12, %if.end10
  %15 = load ptr, ptr %c.addr, align 8
  %16 = load ptr, ptr %argv.addr, align 8
  %arrayidx14 = getelementptr inbounds ptr, ptr %16, i64 2
  %17 = load ptr, ptr %arrayidx14, align 8
  %call15 = call double @extractUnitOrReply(ptr noundef %15, ptr noundef %17)
  store double %call15, ptr %to_meters, align 8
  %18 = load double, ptr %to_meters, align 8
  %cmp16 = fcmp olt double %18, 0.000000e+00
  br i1 %cmp16, label %if.then17, label %if.end18

if.then17:                                        ; preds = %if.end13
  store i32 -1, ptr %retval, align 4
  br label %return

if.end18:                                         ; preds = %if.end13
  %19 = load ptr, ptr %conversion.addr, align 8
  %tobool19 = icmp ne ptr %19, null
  br i1 %tobool19, label %if.then20, label %if.end21

if.then20:                                        ; preds = %if.end18
  %20 = load double, ptr %to_meters, align 8
  %21 = load ptr, ptr %conversion.addr, align 8
  store double %20, ptr %21, align 8
  br label %if.end21

if.end21:                                         ; preds = %if.then20, %if.end18
  store i32 0, ptr %retval, align 4
  br label %return

return:                                           ; preds = %if.end21, %if.then17, %if.then7, %if.then
  %22 = load i32, ptr %retval, align 4
  ret i32 %22
}