; Function Attrs: nounwind uwtable
define dso_local noundef i32 @extractBoxOrReply(ptr noundef %c, ptr nocapture noundef readonly %argv, ptr noundef writeonly %conversion, ptr noundef writeonly %width, ptr noundef writeonly %height) local_unnamed_addr #0 {
entry:
  %h = alloca double, align 8
  %w = alloca double, align 8
  %0 = load ptr, ptr %argv, align 8
  %call = call i32 @getDoubleFromObjectOrReply(ptr noundef %c, ptr noundef %0, ptr noundef nonnull %w, ptr noundef nonnull @.str.8) #14
  %cmp.not = icmp eq i32 %call, 0
  br i1 %cmp.not, label %lor.lhs.false, label %return

lor.lhs.false:                                    ; preds = %entry
  %arrayidx1 = getelementptr inbounds i8, ptr %argv, i64 8
  %1 = load ptr, ptr %arrayidx1, align 8
  %call2 = call i32 @getDoubleFromObjectOrReply(ptr noundef %c, ptr noundef %1, ptr noundef nonnull %h, ptr noundef nonnull @.str.9) #14
  %cmp3.not = icmp eq i32 %call2, 0
  br i1 %cmp3.not, label %if.end, label %return

if.end:                                           ; preds = %lor.lhs.false
  %2 = load double, ptr %h, align 8
  %cmp4 = fcmp olt double %2, 0.000000e+00
  %3 = load double, ptr %w, align 8
  %cmp6 = fcmp olt double %3, 0.000000e+00
  %or.cond = select i1 %cmp4, i1 true, i1 %cmp6
  br i1 %or.cond, label %if.then7, label %if.end8

if.then7:                                         ; preds = %if.end
  call void @addReplyError(ptr noundef %c, ptr noundef nonnull @.str.10) #14
  br label %return

if.end8:                                          ; preds = %if.end
  %tobool.not = icmp eq ptr %height, null
  br i1 %tobool.not, label %if.end10, label %if.then9

if.then9:                                         ; preds = %if.end8
  store double %2, ptr %height, align 8
  br label %if.end10

if.end10:                                         ; preds = %if.then9, %if.end8
  %tobool11.not = icmp eq ptr %width, null
  br i1 %tobool11.not, label %if.end13, label %if.then12

if.then12:                                        ; preds = %if.end10
  store double %3, ptr %width, align 8
  br label %if.end13

if.end13:                                         ; preds = %if.then12, %if.end10
  %arrayidx14 = getelementptr inbounds i8, ptr %argv, i64 16
  %4 = load ptr, ptr %arrayidx14, align 8
  %ptr.i = getelementptr inbounds i8, ptr %4, i64 8
  %5 = load ptr, ptr %ptr.i, align 8
  %call.i = call i32 @strcasecmp(ptr noundef %5, ptr noundef nonnull @.str.1) #15
  %tobool.not.i = icmp eq i32 %call.i, 0
  br i1 %tobool.not.i, label %if.end18, label %if.else.i

if.else.i:                                        ; preds = %if.end13
  %call1.i = call i32 @strcasecmp(ptr noundef %5, ptr noundef nonnull @.str.2) #15
  %tobool2.not.i = icmp eq i32 %call1.i, 0
  br i1 %tobool2.not.i, label %if.end18, label %if.else4.i

if.else4.i:                                       ; preds = %if.else.i
  %call5.i = call i32 @strcasecmp(ptr noundef %5, ptr noundef nonnull @.str.3) #15
  %tobool6.not.i = icmp eq i32 %call5.i, 0
  br i1 %tobool6.not.i, label %if.end18, label %if.else8.i

if.else8.i:                                       ; preds = %if.else4.i
  %call9.i = call i32 @strcasecmp(ptr noundef %5, ptr noundef nonnull @.str.4) #15
  %tobool10.not.i = icmp eq i32 %call9.i, 0
  br i1 %tobool10.not.i, label %if.end18, label %extractUnitOrReply.exit

extractUnitOrReply.exit:                          ; preds = %if.else8.i
  call void @addReplyError(ptr noundef %c, ptr noundef nonnull @.str.5) #14
  br label %return

if.end18:                                         ; preds = %if.end13, %if.else.i, %if.else4.i, %if.else8.i
  %retval.0.i.ph = phi double [ 1.609340e+03, %if.else8.i ], [ 3.048000e-01, %if.else4.i ], [ 1.000000e+03, %if.else.i ], [ 1.000000e+00, %if.end13 ]
  %tobool19.not = icmp eq ptr %conversion, null
  br i1 %tobool19.not, label %return, label %if.then20

if.then20:                                        ; preds = %if.end18
  store double %retval.0.i.ph, ptr %conversion, align 8
  br label %return

return:                                           ; preds = %extractUnitOrReply.exit, %if.end18, %if.then20, %entry, %lor.lhs.false, %if.then7
  %retval.0 = phi i32 [ -1, %if.then7 ], [ -1, %lor.lhs.false ], [ -1, %entry ], [ -1, %extractUnitOrReply.exit ], [ 0, %if.then20 ], [ 0, %if.end18 ]
  ret i32 %retval.0
}